; Function Attrs: nounwind uwtable
define void @duckdb_je_malloc_mutex_prefork(ptr noundef %0, ptr noundef %1) local_unnamed_addr #0 {
  %3 = getelementptr inbounds nuw i8, ptr %1, i64 72
  %4 = tail call i32 @pthread_mutex_trylock(ptr noundef nonnull %3) #7
  %.not.i = icmp eq i32 %4, 0
  br i1 %.not.i, label %7, label %5

5:                                                ; preds = %2
  tail call void @duckdb_je_malloc_mutex_lock_slow(ptr noundef nonnull %1)
  %6 = getelementptr inbounds nuw i8, ptr %1, i64 64
  store atomic i8 1, ptr %6 monotonic, align 1
  br label %7

7:                                                ; preds = %5, %2
  %8 = getelementptr inbounds nuw i8, ptr %1, i64 56
  %9 = load i64, ptr %8, align 8, !tbaa !20
  %10 = add i64 %9, 1
  store i64 %10, ptr %8, align 8, !tbaa !20
  %11 = getelementptr inbounds nuw i8, ptr %1, i64 48
  %12 = load ptr, ptr %11, align 8, !tbaa !19
  %.not.i.i = icmp eq ptr %12, %0
  br i1 %.not.i.i, label %malloc_mutex_lock.exit, label %13

13:                                               ; preds = %7
  store ptr %0, ptr %11, align 8, !tbaa !19
  %14 = getelementptr inbounds nuw i8, ptr %1, i64 40
  %15 = load i64, ptr %14, align 8, !tbaa !21
  %16 = add i64 %15, 1
  store i64 %16, ptr %14, align 8, !tbaa !21
  br label %malloc_mutex_lock.exit

malloc_mutex_lock.exit:                           ; preds = %7, %13
  ret void
}